target datalayout = "e-m:e-p270:32:32-p271:32:32-p272:64:64-i64:64-i128:128-f80:128-n8:16:32:64-S128"
target triple = "x86_64-pc-linux-gnu"

%"class.std::__cxx11::basic_string" = type { %"struct.std::__cxx11::basic_string<char>::_Alloc_hider", i64, %union.anon }
%"struct.std::__cxx11::basic_string<char>::_Alloc_hider" = type { ptr }
%union.anon = type { i64, [8 x i8] }
%"struct.open_spiel::chess::Move" = type { %"struct.open_spiel::chess_common::Square", %"struct.open_spiel::chess_common::Square", %"struct.open_spiel::chess::Piece", i8, i32 }
%"struct.open_spiel::chess_common::Square" = type { i8, i8 }
%"struct.open_spiel::chess::Piece" = type { i8, i8 }
%"class.std::shared_ptr" = type { %"class.std::__shared_ptr" }
%"class.std::__shared_ptr" = type { ptr, %"class.std::__shared_count" }
%"class.std::__shared_count" = type { ptr }
%"struct.std::pair.6" = type { i32, i32 }
%"class.open_spiel::chess::ChessBoard" = type { i32, i8, i8, %"struct.std::array", i8, %"struct.open_spiel::chess_common::Square", i32, i32, [2 x %struct.anon], i64 }
%"struct.std::array" = type { [64 x %"struct.open_spiel::chess::Piece"] }
%struct.anon = type { %"class.absl::debian2::optional", %"class.absl::debian2::optional" }
%"class.absl::debian2::optional" = type { %"class.absl::debian2::optional_internal::optional_data" }
%"class.absl::debian2::optional_internal::optional_data" = type { %"class.absl::debian2::optional_internal::optional_data_base" }
%"class.absl::debian2::optional_internal::optional_data_base" = type { %"class.absl::debian2::optional_internal::optional_data_dtor_base" }
%"class.absl::debian2::optional_internal::optional_data_dtor_base" = type { i8, %union.anon.8 }
%union.anon.8 = type { %"struct.open_spiel::chess_common::Square" }
%"struct.open_spiel::kriegspiel::KriegspielUmpireMessage" = type { i8, i32, %"struct.open_spiel::chess_common::Square", %"struct.std::pair.6", i8, i32 }
%"class.open_spiel::kriegspiel::KriegspielState" = type { %"class.open_spiel::State.base", %"class.std::vector.17", %"class.absl::debian2::optional.22", %"class.std::vector.27", %"class.open_spiel::chess::ChessBoard", %"class.open_spiel::chess::ChessBoard", i8, i8, %"class.absl::debian2::flat_hash_map", %"class.absl::debian2::optional.40" }
%"class.open_spiel::State.base" = type <{ ptr, %"class.std::shared_ptr", i32, i32, %"class.std::vector", i32 }>
%"class.std::vector" = type { %"struct.std::_Vector_base" }
%"struct.std::_Vector_base" = type { %"struct.std::_Vector_base<open_spiel::State::PlayerAction, std::allocator<open_spiel::State::PlayerAction>>::_Vector_impl" }
%"struct.std::_Vector_base<open_spiel::State::PlayerAction, std::allocator<open_spiel::State::PlayerAction>>::_Vector_impl" = type { %"struct.std::_Vector_base<open_spiel::State::PlayerAction, std::allocator<open_spiel::State::PlayerAction>>::_Vector_impl_data" }
%"struct.std::_Vector_base<open_spiel::State::PlayerAction, std::allocator<open_spiel::State::PlayerAction>>::_Vector_impl_data" = type { ptr, ptr, ptr }
%"class.std::vector.17" = type { %"struct.std::_Vector_base.18" }
%"struct.std::_Vector_base.18" = type { %"struct.std::_Vector_base<std::pair<open_spiel::chess::Move, open_spiel::kriegspiel::KriegspielUmpireMessage>, std::allocator<std::pair<open_spiel::chess::Move, open_spiel::kriegspiel::KriegspielUmpireMessage>>>::_Vector_impl" }
%"struct.std::_Vector_base<std::pair<open_spiel::chess::Move, open_spiel::kriegspiel::KriegspielUmpireMessage>, std::allocator<std::pair<open_spiel::chess::Move, open_spiel::kriegspiel::KriegspielUmpireMessage>>>::_Vector_impl" = type { %"struct.std::_Vector_base<std::pair<open_spiel::chess::Move, open_spiel::kriegspiel::KriegspielUmpireMessage>, std::allocator<std::pair<open_spiel::chess::Move, open_spiel::kriegspiel::KriegspielUmpireMessage>>>::_Vector_impl_data" }
%"struct.std::_Vector_base<std::pair<open_spiel::chess::Move, open_spiel::kriegspiel::KriegspielUmpireMessage>, std::allocator<std::pair<open_spiel::chess::Move, open_spiel::kriegspiel::KriegspielUmpireMessage>>>::_Vector_impl_data" = type { ptr, ptr, ptr }
%"class.absl::debian2::optional.22" = type { %"class.absl::debian2::optional_internal::optional_data.23" }
%"class.absl::debian2::optional_internal::optional_data.23" = type { %"class.absl::debian2::optional_internal::optional_data_base.24" }
%"class.absl::debian2::optional_internal::optional_data_base.24" = type { %"class.absl::debian2::optional_internal::optional_data_dtor_base.25" }
%"class.absl::debian2::optional_internal::optional_data_dtor_base.25" = type { i8, %union.anon.26 }
%union.anon.26 = type { %"struct.open_spiel::kriegspiel::KriegspielUmpireMessage" }
%"class.std::vector.27" = type { %"struct.std::_Vector_base.28" }
%"struct.std::_Vector_base.28" = type { %"struct.std::_Vector_base<open_spiel::chess::Move, std::allocator<open_spiel::chess::Move>>::_Vector_impl" }
%"struct.std::_Vector_base<open_spiel::chess::Move, std::allocator<open_spiel::chess::Move>>::_Vector_impl" = type { %"struct.std::_Vector_base<open_spiel::chess::Move, std::allocator<open_spiel::chess::Move>>::_Vector_impl_data" }
%"struct.std::_Vector_base<open_spiel::chess::Move, std::allocator<open_spiel::chess::Move>>::_Vector_impl_data" = type { ptr, ptr, ptr }
%"class.absl::debian2::flat_hash_map" = type { %"class.absl::debian2::container_internal::raw_hash_map" }
%"class.absl::debian2::container_internal::raw_hash_map" = type { %"class.absl::debian2::container_internal::raw_hash_set" }
%"class.absl::debian2::container_internal::raw_hash_set" = type { ptr, ptr, i64, i64, %"class.absl::debian2::container_internal::CompressedTuple" }
%"class.absl::debian2::container_internal::CompressedTuple" = type { %"struct.absl::debian2::container_internal::internal_compressed_tuple::CompressedTupleImpl" }
%"struct.absl::debian2::container_internal::internal_compressed_tuple::CompressedTupleImpl" = type { %"struct.absl::debian2::container_internal::internal_compressed_tuple::Storage" }
%"struct.absl::debian2::container_internal::internal_compressed_tuple::Storage" = type { i64 }
%"class.absl::debian2::optional.40" = type { %"class.absl::debian2::optional_internal::optional_data.41" }
%"class.absl::debian2::optional_internal::optional_data.41" = type { %"class.absl::debian2::optional_internal::optional_data_base.42" }
%"class.absl::debian2::optional_internal::optional_data_base.42" = type { %"class.absl::debian2::optional_internal::optional_data_dtor_base.43" }
%"class.absl::debian2::optional_internal::optional_data_dtor_base.43" = type { i8, %union.anon.44 }
%union.anon.44 = type { %"class.std::vector.45" }
%"class.std::vector.45" = type { %"struct.std::_Vector_base.46" }
%"struct.std::_Vector_base.46" = type { %"struct.std::_Vector_base<long, std::allocator<long>>::_Vector_impl" }
%"struct.std::_Vector_base<long, std::allocator<long>>::_Vector_impl" = type { %"struct.std::_Vector_base<long, std::allocator<long>>::_Vector_impl_data" }
%"struct.std::_Vector_base<long, std::allocator<long>>::_Vector_impl_data" = type { ptr, ptr, ptr }

; Function Attrs: mustprogress nounwind uwtable
define linkonce_odr noundef nonnull align 8 dereferenceable(168) ptr @_ZNK10open_spiel10kriegspiel15KriegspielState5BoardEv(ptr noundef nonnull align 8 dereferenceable(560) %0) #5 comdat align 2 {
  %2 = alloca ptr, align 8
  store ptr %0, ptr %2, align 8
  %3 = load ptr, ptr %2, align 8
  %4 = getelementptr inbounds nuw %"class.open_spiel::kriegspiel::KriegspielState", ptr %3, i32 0, i32 5
  ret ptr %4
}

; Function Attrs: mustprogress uwtable
define void @_ZNK10open_spiel10kriegspiel15KriegspielState14ActionToStringB5cxx11Eil(ptr dead_on_unwind noalias writable sret(%"class.std::__cxx11::basic_string") align 8 %0, ptr noundef nonnull align 8 dereferenceable(560) %1, i32 noundef %2, i64 noundef %3) unnamed_addr #4 align 2 {
  %5 = alloca ptr, align 8
  %6 = alloca ptr, align 8
  %7 = alloca i32, align 4
  %8 = alloca i64, align 8
  %9 = alloca %"struct.open_spiel::chess::Move", align 4
  %10 = alloca { i64, i32 }, align 8
  store ptr %0, ptr %5, align 8
  store ptr %1, ptr %6, align 8
  store i32 %2, ptr %7, align 4
  store i64 %3, ptr %8, align 8
  %11 = load ptr, ptr %6, align 8
  %12 = call noundef nonnull align 8 dereferenceable(168) ptr @_ZNK10open_spiel10kriegspiel15KriegspielState5BoardEv(ptr noundef nonnull align 8 dereferenceable(560) %11)
  %13 = call { i64, i32 } @_ZN10open_spiel5chess12ActionToMoveERKlRKNS0_10ChessBoardE(ptr noundef nonnull align 8 dereferenceable(8) %8, ptr noundef nonnull align 8 dereferenceable(168) %12)
  store { i64, i32 } %13, ptr %10, align 8
  call void @llvm.memcpy.p0.p0.i64(ptr align 4 %9, ptr align 8 %10, i64 12, i1 false)
  call void @_ZNK10open_spiel5chess4Move5ToLANB5cxx11EbPKNS0_10ChessBoardE(ptr dead_on_unwind writable sret(%"class.std::__cxx11::basic_string") align 8 %0, ptr noundef nonnull align 4 dereferenceable(12) %9, i1 noundef zeroext false, ptr noundef null)
  ret void
}